; Function Attrs: mustprogress uwtable
define hidden void @_ZN17opencv_tensorflow18FunctionDefLibrary8CopyFromERKS0_(ptr noundef nonnull align 8 dereferenceable(72) %0, ptr noundef nonnull readonly align 8 dereferenceable(72) %1) local_unnamed_addr #3 align 2 personality ptr @__gxx_personality_v0 {
  %3 = icmp eq ptr %1, %0
  br i1 %3, label %27, label %4

4:                                                ; preds = %2
  %5 = getelementptr inbounds nuw i8, ptr %0, i64 16
  tail call void @_ZN6google8protobuf8internal20RepeatedPtrFieldBase5ClearINS0_16RepeatedPtrFieldIN17opencv_tensorflow11FunctionDefEE11TypeHandlerEEEvv(ptr noundef nonnull align 8 dereferenceable(24) %5)
  %6 = getelementptr inbounds nuw i8, ptr %0, i64 48
  %7 = load i32, ptr %6, align 8, !tbaa !20
  %8 = icmp sgt i32 %7, 0
  br i1 %8, label %9, label %_ZN6google8protobuf16RepeatedPtrFieldIN17opencv_tensorflow11GradientDefEE5ClearEv.exit.i

9:                                                ; preds = %4
  %10 = getelementptr inbounds nuw i8, ptr %0, i64 56
  %11 = load ptr, ptr %10, align 8, !tbaa !16
  %12 = getelementptr inbounds nuw i8, ptr %11, i64 8
  %wide.trip.count.i.i.i = zext nneg i32 %7 to i64
  br label %13

13:                                               ; preds = %_ZN6google8protobuf8internal18GenericTypeHandlerIN17opencv_tensorflow11GradientDefEE5ClearEPS4_.exit.i.i.i, %9
  %indvars.iv.i.i.i = phi i64 [ %indvars.iv.next.i.i.i, %_ZN6google8protobuf8internal18GenericTypeHandlerIN17opencv_tensorflow11GradientDefEE5ClearEPS4_.exit.i.i.i ], [ 0, %9 ]
  %indvars.iv.next.i.i.i = add nuw nsw i64 %indvars.iv.i.i.i, 1
  %14 = getelementptr inbounds nuw ptr, ptr %12, i64 %indvars.iv.i.i.i
  %15 = load ptr, ptr %14, align 8, !tbaa !25
  %16 = getelementptr inbounds nuw i8, ptr %15, i64 16
  tail call void @_ZN6google8protobuf8internal14ArenaStringPtr12ClearToEmptyEv(ptr noundef nonnull align 8 dereferenceable(8) %16)
  %17 = getelementptr inbounds nuw i8, ptr %15, i64 24
  tail call void @_ZN6google8protobuf8internal14ArenaStringPtr12ClearToEmptyEv(ptr noundef nonnull align 8 dereferenceable(8) %17)
  %18 = getelementptr inbounds nuw i8, ptr %15, i64 8
  %19 = load i64, ptr %18, align 8, !tbaa !3
  %20 = and i64 %19, 1
  %.not.i.i.i.i.i = icmp eq i64 %20, 0
  br i1 %.not.i.i.i.i.i, label %_ZN6google8protobuf8internal18GenericTypeHandlerIN17opencv_tensorflow11GradientDefEE5ClearEPS4_.exit.i.i.i, label %21

21:                                               ; preds = %13
  tail call void @_ZN6google8protobuf8internal16InternalMetadata7DoClearINS0_15UnknownFieldSetEEEvv(ptr noundef nonnull align 8 dereferenceable(8) %18)
  br label %_ZN6google8protobuf8internal18GenericTypeHandlerIN17opencv_tensorflow11GradientDefEE5ClearEPS4_.exit.i.i.i

_ZN6google8protobuf8internal18GenericTypeHandlerIN17opencv_tensorflow11GradientDefEE5ClearEPS4_.exit.i.i.i: ; preds = %21, %13
  %exitcond.not.i.i.i = icmp eq i64 %indvars.iv.next.i.i.i, %wide.trip.count.i.i.i
  br i1 %exitcond.not.i.i.i, label %22, label %13, !llvm.loop !26

22:                                               ; preds = %_ZN6google8protobuf8internal18GenericTypeHandlerIN17opencv_tensorflow11GradientDefEE5ClearEPS4_.exit.i.i.i
  store i32 0, ptr %6, align 8, !tbaa !20
  br label %_ZN6google8protobuf16RepeatedPtrFieldIN17opencv_tensorflow11GradientDefEE5ClearEv.exit.i

_ZN6google8protobuf16RepeatedPtrFieldIN17opencv_tensorflow11GradientDefEE5ClearEv.exit.i: ; preds = %22, %4
  %23 = getelementptr inbounds nuw i8, ptr %0, i64 8
  %24 = load i64, ptr %23, align 8, !tbaa !3
  %25 = and i64 %24, 1
  %.not.i = icmp eq i64 %25, 0
  br i1 %.not.i, label %_ZN17opencv_tensorflow18FunctionDefLibrary5ClearEv.exit, label %26

26:                                               ; preds = %_ZN6google8protobuf16RepeatedPtrFieldIN17opencv_tensorflow11GradientDefEE5ClearEv.exit.i
  tail call void @_ZN6google8protobuf8internal16InternalMetadata7DoClearINS0_15UnknownFieldSetEEEvv(ptr noundef nonnull align 8 dereferenceable(8) %23)
  br label %_ZN17opencv_tensorflow18FunctionDefLibrary5ClearEv.exit

_ZN17opencv_tensorflow18FunctionDefLibrary5ClearEv.exit: ; preds = %_ZN6google8protobuf16RepeatedPtrFieldIN17opencv_tensorflow11GradientDefEE5ClearEv.exit.i, %26
  tail call void @_ZN17opencv_tensorflow18FunctionDefLibrary9MergeFromERKS0_(ptr noundef nonnull align 8 dereferenceable(72) %0, ptr noundef nonnull align 8 dereferenceable(72) %1)
  br label %27

27:                                               ; preds = %2, %_ZN17opencv_tensorflow18FunctionDefLibrary5ClearEv.exit
  ret void
}